; ModuleID = '51/153.c'
source_filename = "51/153.c"
target datalayout = "e-m:e-p270:32:32-p271:32:32-p272:64:64-i64:64-f80:128-n8:16:32:64-S128"
target triple = "x86_64-pc-linux-gnu"

@.str = private unnamed_addr constant [4 x i8] c"%d\0A\00", align 1
@.str.1 = private unnamed_addr constant [3 x i8] c"NO\00", align 1
@.str.2 = private unnamed_addr constant [3 x i8] c"%d\00", align 1
@.str.3 = private unnamed_addr constant [4 x i8] c"\0A%s\00", align 1

; Function Attrs: noinline nounwind uwtable
define dso_local i32 @main() #0 {
  %1 = alloca i32, align 4
  %2 = alloca [500 x i8], align 16
  %3 = alloca [500 x [5 x i8]], align 16
  %4 = alloca [500 x i32], align 16
  %5 = alloca [500 x [5 x i8]], align 16
  %6 = alloca i32, align 4
  %7 = alloca i32, align 4
  %8 = alloca i32, align 4
  %9 = alloca i32, align 4
  %10 = alloca i32, align 4
  %11 = alloca i32, align 4
  store i32 0, i32* %1, align 4
  %12 = bitcast [500 x i8]* %2 to i8*
  call void @llvm.memset.p0i8.i64(i8* align 16 %12, i8 0, i64 500, i1 false)
  %13 = bitcast [500 x [5 x i8]]* %3 to i8*
  call void @llvm.memset.p0i8.i64(i8* align 16 %13, i8 0, i64 2500, i1 false)
  %14 = bitcast [500 x i32]* %4 to i8*
  call void @llvm.memset.p0i8.i64(i8* align 16 %14, i8 0, i64 2000, i1 false)
  %15 = bitcast [500 x [5 x i8]]* %5 to i8*
  call void @llvm.memset.p0i8.i64(i8* align 16 %15, i8 0, i64 2500, i1 false)
  store i32 0, i32* %9, align 4
  store i32 -1, i32* %11, align 4
  %16 = call i32 (i8*, ...) @__isoc99_scanf(i8* getelementptr inbounds ([4 x i8], [4 x i8]* @.str, i64 0, i64 0), i32* %6)
  %17 = getelementptr inbounds [500 x i8], [500 x i8]* %2, i64 0, i64 0
  %18 = call i32 (i8*, ...) bitcast (i32 (...)* @gets to i32 (i8*, ...)*)(i8* %17)
  %19 = getelementptr inbounds [500 x i8], [500 x i8]* %2, i64 0, i64 0
  %20 = call i64 @strlen(i8* %19) #5
  %21 = trunc i64 %20 to i32
  store i32 %21, i32* %10, align 4
  store i32 0, i32* %7, align 4
  br label %22

22:                                               ; preds = %56, %0
  %23 = load i32, i32* %7, align 4
  %24 = load i32, i32* %10, align 4
  %25 = load i32, i32* %6, align 4
  %26 = sub nsw i32 %24, %25
  %27 = icmp sle i32 %23, %26
  br i1 %27, label %28, label %59

28:                                               ; preds = %22
  store i32 0, i32* %8, align 4
  br label %29

29:                                               ; preds = %46, %28
  %30 = load i32, i32* %8, align 4
  %31 = load i32, i32* %6, align 4
  %32 = icmp slt i32 %30, %31
  br i1 %32, label %33, label %49

33:                                               ; preds = %29
  %34 = load i32, i32* %7, align 4
  %35 = load i32, i32* %8, align 4
  %36 = add nsw i32 %34, %35
  %37 = sext i32 %36 to i64
  %38 = getelementptr inbounds [500 x i8], [500 x i8]* %2, i64 0, i64 %37
  %39 = load i8, i8* %38, align 1
  %40 = load i32, i32* %7, align 4
  %41 = sext i32 %40 to i64
  %42 = getelementptr inbounds [500 x [5 x i8]], [500 x [5 x i8]]* %3, i64 0, i64 %41
  %43 = load i32, i32* %8, align 4
  %44 = sext i32 %43 to i64
  %45 = getelementptr inbounds [5 x i8], [5 x i8]* %42, i64 0, i64 %44
  store i8 %39, i8* %45, align 1
  br label %46

46:                                               ; preds = %33
  %47 = load i32, i32* %8, align 4
  %48 = add nsw i32 %47, 1
  store i32 %48, i32* %8, align 4
  br label %29

49:                                               ; preds = %29
  %50 = load i32, i32* %7, align 4
  %51 = sext i32 %50 to i64
  %52 = getelementptr inbounds [500 x [5 x i8]], [500 x [5 x i8]]* %3, i64 0, i64 %51
  %53 = load i32, i32* %6, align 4
  %54 = sext i32 %53 to i64
  %55 = getelementptr inbounds [5 x i8], [5 x i8]* %52, i64 0, i64 %54
  store i8 0, i8* %55, align 1
  br label %56

56:                                               ; preds = %49
  %57 = load i32, i32* %7, align 4
  %58 = add nsw i32 %57, 1
  store i32 %58, i32* %7, align 4
  br label %22

59:                                               ; preds = %22
  store i32 0, i32* %7, align 4
  br label %60

60:                                               ; preds = %141, %59
  %61 = load i32, i32* %7, align 4
  %62 = load i32, i32* %10, align 4
  %63 = load i32, i32* %6, align 4
  %64 = sub nsw i32 %62, %63
  %65 = icmp sle i32 %61, %64
  br i1 %65, label %66, label %144

66:                                               ; preds = %60
  %67 = load i32, i32* %7, align 4
  %68 = sext i32 %67 to i64
  %69 = getelementptr inbounds [500 x [5 x i8]], [500 x [5 x i8]]* %3, i64 0, i64 %68
  %70 = getelementptr inbounds [5 x i8], [5 x i8]* %69, i64 0, i64 0
  %71 = load i8, i8* %70, align 1
  %72 = sext i8 %71 to i32
  %73 = icmp ne i32 %72, 32
  br i1 %73, label %74, label %86

74:                                               ; preds = %66
  %75 = load i32, i32* %11, align 4
  %76 = add nsw i32 %75, 1
  store i32 %76, i32* %11, align 4
  %77 = load i32, i32* %11, align 4
  %78 = sext i32 %77 to i64
  %79 = getelementptr inbounds [500 x [5 x i8]], [500 x [5 x i8]]* %5, i64 0, i64 %78
  %80 = getelementptr inbounds [5 x i8], [5 x i8]* %79, i64 0, i64 0
  %81 = load i32, i32* %7, align 4
  %82 = sext i32 %81 to i64
  %83 = getelementptr inbounds [500 x [5 x i8]], [500 x [5 x i8]]* %3, i64 0, i64 %82
  %84 = getelementptr inbounds [5 x i8], [5 x i8]* %83, i64 0, i64 0
  %85 = call i8* @strcpy(i8* %80, i8* %84) #6
  br label %86

86:                                               ; preds = %74, %66
  %87 = load i32, i32* %10, align 4
  %88 = load i32, i32* %6, align 4
  %89 = sub nsw i32 %87, %88
  store i32 %89, i32* %8, align 4
  br label %90

90:                                               ; preds = %125, %86
  %91 = load i32, i32* %8, align 4
  %92 = load i32, i32* %7, align 4
  %93 = icmp sge i32 %91, %92
  br i1 %93, label %94, label %128

94:                                               ; preds = %90
  %95 = load i32, i32* %8, align 4
  %96 = sext i32 %95 to i64
  %97 = getelementptr inbounds [500 x [5 x i8]], [500 x [5 x i8]]* %3, i64 0, i64 %96
  %98 = getelementptr inbounds [5 x i8], [5 x i8]* %97, i64 0, i64 0
  %99 = load i8, i8* %98, align 1
  %100 = sext i8 %99 to i32
  %101 = icmp ne i32 %100, 32
  br i1 %101, label %102, label %124

102:                                              ; preds = %94
  %103 = load i32, i32* %7, align 4
  %104 = sext i32 %103 to i64
  %105 = getelementptr inbounds [500 x [5 x i8]], [500 x [5 x i8]]* %3, i64 0, i64 %104
  %106 = getelementptr inbounds [5 x i8], [5 x i8]* %105, i64 0, i64 0
  %107 = load i32, i32* %8, align 4
  %108 = sext i32 %107 to i64
  %109 = getelementptr inbounds [500 x [5 x i8]], [500 x [5 x i8]]* %3, i64 0, i64 %108
  %110 = getelementptr inbounds [5 x i8], [5 x i8]* %109, i64 0, i64 0
  %111 = call i32 @strcmp(i8* %106, i8* %110) #5
  %112 = icmp eq i32 %111, 0
  br i1 %112, label %113, label %123

113:                                              ; preds = %102
  %114 = load i32, i32* %11, align 4
  %115 = sext i32 %114 to i64
  %116 = getelementptr inbounds [500 x i32], [500 x i32]* %4, i64 0, i64 %115
  %117 = load i32, i32* %116, align 4
  %118 = add nsw i32 %117, 1
  store i32 %118, i32* %116, align 4
  %119 = load i32, i32* %8, align 4
  %120 = sext i32 %119 to i64
  %121 = getelementptr inbounds [500 x [5 x i8]], [500 x [5 x i8]]* %3, i64 0, i64 %120
  %122 = getelementptr inbounds [5 x i8], [5 x i8]* %121, i64 0, i64 0
  store i8 32, i8* %122, align 1
  br label %123

123:                                              ; preds = %113, %102
  br label %124

124:                                              ; preds = %123, %94
  br label %125

125:                                              ; preds = %124
  %126 = load i32, i32* %8, align 4
  %127 = add nsw i32 %126, -1
  store i32 %127, i32* %8, align 4
  br label %90

128:                                              ; preds = %90
  %129 = load i32, i32* %9, align 4
  %130 = load i32, i32* %11, align 4
  %131 = sext i32 %130 to i64
  %132 = getelementptr inbounds [500 x i32], [500 x i32]* %4, i64 0, i64 %131
  %133 = load i32, i32* %132, align 4
  %134 = icmp slt i32 %129, %133
  br i1 %134, label %135, label %140

135:                                              ; preds = %128
  %136 = load i32, i32* %11, align 4
  %137 = sext i32 %136 to i64
  %138 = getelementptr inbounds [500 x i32], [500 x i32]* %4, i64 0, i64 %137
  %139 = load i32, i32* %138, align 4
  store i32 %139, i32* %9, align 4
  br label %140

140:                                              ; preds = %135, %128
  br label %141

141:                                              ; preds = %140
  %142 = load i32, i32* %7, align 4
  %143 = add nsw i32 %142, 1
  store i32 %143, i32* %7, align 4
  br label %60

144:                                              ; preds = %60
  %145 = load i32, i32* %9, align 4
  %146 = icmp eq i32 %145, 1
  br i1 %146, label %147, label %149

147:                                              ; preds = %144
  %148 = call i32 (i8*, ...) @printf(i8* getelementptr inbounds ([3 x i8], [3 x i8]* @.str.1, i64 0, i64 0))
  br label %174

149:                                              ; preds = %144
  %150 = load i32, i32* %9, align 4
  %151 = call i32 (i8*, ...) @printf(i8* getelementptr inbounds ([3 x i8], [3 x i8]* @.str.2, i64 0, i64 0), i32 %150)
  store i32 0, i32* %7, align 4
  br label %152

152:                                              ; preds = %170, %149
  %153 = load i32, i32* %7, align 4
  %154 = load i32, i32* %11, align 4
  %155 = icmp sle i32 %153, %154
  br i1 %155, label %156, label %173

156:                                              ; preds = %152
  %157 = load i32, i32* %7, align 4
  %158 = sext i32 %157 to i64
  %159 = getelementptr inbounds [500 x i32], [500 x i32]* %4, i64 0, i64 %158
  %160 = load i32, i32* %159, align 4
  %161 = load i32, i32* %9, align 4
  %162 = icmp eq i32 %160, %161
  br i1 %162, label %163, label %169

163:                                              ; preds = %156
  %164 = load i32, i32* %7, align 4
  %165 = sext i32 %164 to i64
  %166 = getelementptr inbounds [500 x [5 x i8]], [500 x [5 x i8]]* %5, i64 0, i64 %165
  %167 = getelementptr inbounds [5 x i8], [5 x i8]* %166, i64 0, i64 0
  %168 = call i32 (i8*, ...) @printf(i8* getelementptr inbounds ([4 x i8], [4 x i8]* @.str.3, i64 0, i64 0), i8* %167)
  br label %169

169:                                              ; preds = %163, %156
  br label %170

170:                                              ; preds = %169
  %171 = load i32, i32* %7, align 4
  %172 = add nsw i32 %171, 1
  store i32 %172, i32* %7, align 4
  br label %152

173:                                              ; preds = %152
  br label %174

174:                                              ; preds = %173, %147
  %175 = load i32, i32* %1, align 4
  ret i32 %175
}

; Function Attrs: argmemonly nounwind willreturn
declare void @llvm.memset.p0i8.i64(i8* nocapture writeonly, i8, i64, i1 immarg) #1

declare dso_local i32 @__isoc99_scanf(i8*, ...) #2

declare dso_local i32 @gets(...) #2

; Function Attrs: nounwind readonly
declare dso_local i64 @strlen(i8*) #3

; Function Attrs: nounwind
declare dso_local i8* @strcpy(i8*, i8*) #4

; Function Attrs: nounwind readonly
declare dso_local i32 @strcmp(i8*, i8*) #3

declare dso_local i32 @printf(i8*, ...) #2


!llvm.module.flags = !{!0}
!llvm.ident = !{!1}

!0 = !{i32 1, !"wchar_size", i32 4}
!1 = !{!"clang version 10.0.0-4ubuntu1 "}
